target datalayout = "e-m:e-p270:32:32-p271:32:32-p272:64:64-i64:64-i128:128-f80:128-n8:16:32:64-S128"
target triple = "x86_64-pc-linux-gnu"

@hf_mpeg_descr_data_bcast_id_bcast_id = internal global i32 0, align 4
@hf_mpeg_descr_data_bcast_id_id_selector_bytes = internal global i32 0, align 4

; Function Attrs: null_pointer_is_valid sspstrong uwtable
define internal void @proto_mpeg_descriptor_dissect_data_bcast_id(ptr noundef %0, i32 noundef %1, i32 noundef %2, ptr noundef %3) #1 {
  %5 = alloca ptr, align 8
  %6 = alloca i32, align 4
  %7 = alloca i32, align 4
  %8 = alloca ptr, align 8
  store ptr %0, ptr %5, align 8
  store i32 %1, ptr %6, align 4
  store i32 %2, ptr %7, align 4
  store ptr %3, ptr %8, align 8
  %9 = load ptr, ptr %8, align 8
  %10 = load i32, ptr @hf_mpeg_descr_data_bcast_id_bcast_id, align 4
  %11 = load ptr, ptr %5, align 8
  %12 = load i32, ptr %6, align 4
  %13 = call ptr @proto_tree_add_item(ptr noundef %9, i32 noundef %10, ptr noundef %11, i32 noundef %12, i32 noundef 2, i32 noundef 0)
  %14 = load i32, ptr %6, align 4
  %15 = add i32 %14, 2
  store i32 %15, ptr %6, align 4
  %16 = load i32, ptr %7, align 4
  %17 = icmp ugt i32 %16, 2
  br i1 %17, label %18, label %26

18:                                               ; preds = %4
  %19 = load ptr, ptr %8, align 8
  %20 = load i32, ptr @hf_mpeg_descr_data_bcast_id_id_selector_bytes, align 4
  %21 = load ptr, ptr %5, align 8
  %22 = load i32, ptr %6, align 4
  %23 = load i32, ptr %7, align 4
  %24 = sub i32 %23, 2
  %25 = call ptr @proto_tree_add_item(ptr noundef %19, i32 noundef %20, ptr noundef %21, i32 noundef %22, i32 noundef %24, i32 noundef 0)
  br label %26

26:                                               ; preds = %18, %4
  ret void
}