; Function Attrs: null_pointer_is_valid sspstrong uwtable
define internal fastcc void @proto_mpeg_descriptor_dissect_data_bcast_id(ptr noundef %0, i32 noundef %1, i32 noundef range(i32 1, 256) %2, ptr noundef %3) unnamed_addr #1 {
  %5 = load i32, ptr @hf_mpeg_descr_data_bcast_id_bcast_id, align 4
  %6 = tail call ptr @proto_tree_add_item(ptr noundef %3, i32 noundef %5, ptr noundef %0, i32 noundef %1, i32 noundef 2, i32 noundef 0)
  %7 = icmp samesign ugt i32 %2, 2
  br i1 %7, label %8, label %13

8:                                                ; preds = %4
  %9 = add i32 %1, 2
  %10 = load i32, ptr @hf_mpeg_descr_data_bcast_id_id_selector_bytes, align 4
  %11 = add nsw i32 %2, -2
  %12 = tail call ptr @proto_tree_add_item(ptr noundef %3, i32 noundef %10, ptr noundef %0, i32 noundef %9, i32 noundef %11, i32 noundef 0)
  br label %13

13:                                               ; preds = %8, %4
  ret void
}